target datalayout = "e-m:e-p270:32:32-p271:32:32-p272:64:64-i64:64-i128:128-f80:128-n8:16:32:64-S128"
target triple = "x86_64-pc-linux-gnu"

%struct._value_string_ext = type { ptr, i32, i32, ptr, ptr }

@payloadtypenames_ext = internal global %struct._value_string_ext { ptr @_try_val_to_str_ext_init, i32 0, i32 21, ptr @payloadtypenames, ptr @.str.364 }, align 8
@gvsp_handle = internal global ptr null, align 8

; Function Attrs: null_pointer_is_valid sspstrong uwtable
define internal zeroext i1 @dissect_gvsp_heur(ptr noundef %0, ptr noundef %1, ptr noundef %2, ptr noundef %3) #0 {
  %5 = alloca i1, align 1
  %6 = alloca ptr, align 8
  %7 = alloca ptr, align 8
  %8 = alloca ptr, align 8
  %9 = alloca ptr, align 8
  %10 = alloca ptr, align 8
  %11 = alloca i16, align 2
  %12 = alloca i8, align 1
  %13 = alloca i32, align 4
  %14 = alloca i32, align 4
  store ptr %0, ptr %6, align 8
  store ptr %1, ptr %7, align 8
  store ptr %2, ptr %8, align 8
  store ptr %3, ptr %9, align 8
  call void @llvm.lifetime.start.p0(i64 8, ptr %10) #7
  store ptr null, ptr %10, align 8
  call void @llvm.lifetime.start.p0(i64 2, ptr %11) #7
  store i16 0, ptr %11, align 2
  call void @llvm.lifetime.start.p0(i64 1, ptr %12) #7
  store i8 0, ptr %12, align 1
  %15 = load ptr, ptr %6, align 8
  %16 = call i32 @tvb_reported_length(ptr noundef %15)
  %17 = icmp ult i32 %16, 8
  br i1 %17, label %22, label %18

18:                                               ; preds = %4
  %19 = load ptr, ptr %6, align 8
  %20 = call i32 @tvb_captured_length(ptr noundef %19)
  %21 = icmp ult i32 %20, 5
  br i1 %21, label %22, label %23

22:                                               ; preds = %18, %4
  store i1 false, ptr %5, align 1
  store i32 1, ptr %13, align 4
  br label %103

23:                                               ; preds = %18
  %24 = load ptr, ptr %6, align 8
  %25 = call zeroext i8 @tvb_get_uint8(ptr noundef %24, i32 noundef 4)
  store i8 %25, ptr %12, align 1
  %26 = load i8, ptr %12, align 1
  %27 = zext i8 %26 to i32
  %28 = and i32 %27, 128
  %29 = icmp ne i32 %28, 0
  br i1 %29, label %30, label %35

30:                                               ; preds = %23
  %31 = load ptr, ptr %6, align 8
  %32 = call i32 @tvb_reported_length(ptr noundef %31)
  %33 = icmp ult i32 %32, 20
  br i1 %33, label %34, label %35

34:                                               ; preds = %30
  store i1 false, ptr %5, align 1
  store i32 1, ptr %13, align 4
  br label %103

35:                                               ; preds = %30, %23
  %36 = load ptr, ptr %6, align 8
  %37 = call zeroext i16 @tvb_get_ntohs(ptr noundef %36, i32 noundef 0)
  store i16 %37, ptr %11, align 2
  %38 = load i16, ptr %11, align 2
  %39 = zext i16 %38 to i32
  %40 = icmp eq i32 %39, 0
  br i1 %40, label %57, label %41

41:                                               ; preds = %35
  %42 = load i16, ptr %11, align 2
  %43 = zext i16 %42 to i32
  %44 = icmp eq i32 %43, 256
  br i1 %44, label %57, label %45

45:                                               ; preds = %41
  %46 = load i16, ptr %11, align 2
  %47 = zext i16 %46 to i32
  %48 = icmp sge i32 %47, 32769
  br i1 %48, label %49, label %53

49:                                               ; preds = %45
  %50 = load i16, ptr %11, align 2
  %51 = zext i16 %50 to i32
  %52 = icmp sle i32 %51, 32791
  br i1 %52, label %57, label %53

53:                                               ; preds = %49, %45
  %54 = load i16, ptr %11, align 2
  %55 = zext i16 %54 to i32
  %56 = icmp eq i32 %55, 36863
  br i1 %56, label %57, label %102

57:                                               ; preds = %53, %49, %41, %35
  %58 = load i8, ptr %12, align 1
  %59 = zext i8 %58 to i32
  %60 = and i32 %59, 127
  %61 = trunc i32 %60 to i8
  store i8 %61, ptr %12, align 1
  %62 = load i8, ptr %12, align 1
  %63 = zext i8 %62 to i32
  %64 = icmp sge i32 %63, 1
  br i1 %64, label %65, label %101

65:                                               ; preds = %57
  %66 = load i8, ptr %12, align 1
  %67 = zext i8 %66 to i32
  %68 = icmp sle i32 %67, 8
  br i1 %68, label %69, label %101

69:                                               ; preds = %65
  %70 = load i8, ptr %12, align 1
  %71 = zext i8 %70 to i32
  %72 = icmp eq i32 %71, 1
  br i1 %72, label %73, label %91

73:                                               ; preds = %69
  %74 = load ptr, ptr %6, align 8
  %75 = call i32 @tvb_captured_length_remaining(ptr noundef %74, i32 noundef 8)
  %76 = icmp sge i32 %75, 2
  br i1 %76, label %77, label %91

77:                                               ; preds = %73
  call void @llvm.lifetime.start.p0(i64 4, ptr %14) #7
  %78 = load ptr, ptr %6, align 8
  %79 = call zeroext i16 @tvb_get_ntohs(ptr noundef %78, i32 noundef 8)
  %80 = zext i16 %79 to i32
  store i32 %80, ptr %14, align 4
  %81 = load i32, ptr %14, align 4
  %82 = and i32 %81, 16383
  store i32 %82, ptr %14, align 4
  %83 = load i32, ptr %14, align 4
  %84 = call ptr @try_val_to_str_ext(i32 noundef %83, ptr noundef @payloadtypenames_ext)
  %85 = icmp eq ptr %84, null
  br i1 %85, label %86, label %87

86:                                               ; preds = %77
  store i1 false, ptr %5, align 1
  store i32 1, ptr %13, align 4
  br label %88

87:                                               ; preds = %77
  store i32 0, ptr %13, align 4
  br label %88

88:                                               ; preds = %87, %86
  call void @llvm.lifetime.end.p0(i64 4, ptr %14) #7
  %89 = load i32, ptr %13, align 4
  switch i32 %89, label %103 [
    i32 0, label %90
  ]

90:                                               ; preds = %88
  br label %91

91:                                               ; preds = %90, %73, %69
  %92 = load ptr, ptr %7, align 8
  %93 = call ptr @find_or_create_conversation(ptr noundef %92)
  store ptr %93, ptr %10, align 8
  %94 = load ptr, ptr %10, align 8
  %95 = load ptr, ptr @gvsp_handle, align 8
  call void @conversation_set_dissector(ptr noundef %94, ptr noundef %95)
  %96 = load ptr, ptr %6, align 8
  %97 = load ptr, ptr %7, align 8
  %98 = load ptr, ptr %8, align 8
  %99 = load ptr, ptr %9, align 8
  %100 = call i32 @dissect_gvsp(ptr noundef %96, ptr noundef %97, ptr noundef %98, ptr noundef %99)
  store i1 true, ptr %5, align 1
  store i32 1, ptr %13, align 4
  br label %103

101:                                              ; preds = %65, %57
  br label %102

102:                                              ; preds = %101, %53
  store i1 false, ptr %5, align 1
  store i32 1, ptr %13, align 4
  br label %103

103:                                              ; preds = %102, %91, %88, %34, %22
  call void @llvm.lifetime.end.p0(i64 1, ptr %12) #7
  call void @llvm.lifetime.end.p0(i64 2, ptr %11) #7
  call void @llvm.lifetime.end.p0(i64 8, ptr %10) #7
  %104 = load i1, ptr %5, align 1
  ret i1 %104
}