; Function Attrs: null_pointer_is_valid sspstrong uwtable
define internal noundef zeroext i1 @dissect_gvsp_heur(ptr noundef %0, ptr noundef %1, ptr noundef %2, ptr readnone captures(none) %3) #0 {
  %5 = tail call i32 @tvb_reported_length(ptr noundef %0)
  %6 = icmp ult i32 %5, 8
  br i1 %6, label %38, label %7

7:                                                ; preds = %4
  %8 = tail call i32 @tvb_captured_length(ptr noundef %0)
  %9 = icmp ult i32 %8, 5
  br i1 %9, label %38, label %10

10:                                               ; preds = %7
  %11 = tail call zeroext i8 @tvb_get_uint8(ptr noundef %0, i32 noundef 4)
  %.not = icmp sgt i8 %11, -1
  br i1 %.not, label %15, label %12

12:                                               ; preds = %10
  %13 = tail call i32 @tvb_reported_length(ptr noundef %0)
  %14 = icmp ult i32 %13, 20
  br i1 %14, label %38, label %15

15:                                               ; preds = %12, %10
  %16 = tail call zeroext i16 @tvb_get_ntohs(ptr noundef %0, i32 noundef 0)
  %17 = and i16 %16, -257
  %or.cond = icmp eq i16 %17, 0
  br i1 %or.cond, label %21, label %18

18:                                               ; preds = %15
  %19 = add i16 %16, 32767
  %or.cond5 = icmp ult i16 %19, 23
  %20 = icmp eq i16 %16, -28673
  %or.cond8 = or i1 %20, %or.cond5
  br i1 %or.cond8, label %21, label %38

21:                                               ; preds = %18, %15
  %22 = and i8 %11, 127
  %23 = add nsw i8 %22, -1
  %or.cond11 = icmp ult i8 %23, 8
  br i1 %or.cond11, label %24, label %38

24:                                               ; preds = %21
  %25 = icmp eq i8 %22, 1
  br i1 %25, label %26, label %34

26:                                               ; preds = %24
  %27 = tail call i32 @tvb_captured_length_remaining(ptr noundef %0, i32 noundef 8)
  %28 = icmp sgt i32 %27, 1
  br i1 %28, label %29, label %34

29:                                               ; preds = %26
  %30 = tail call zeroext i16 @tvb_get_ntohs(ptr noundef %0, i32 noundef 8)
  %31 = and i16 %30, 16383
  %32 = zext nneg i16 %31 to i32
  %33 = tail call ptr @try_val_to_str_ext(i32 noundef %32, ptr noundef nonnull @payloadtypenames_ext)
  %.not40 = icmp eq ptr %33, null
  br i1 %.not40, label %38, label %34

34:                                               ; preds = %29, %26, %24
  %35 = tail call ptr @find_or_create_conversation(ptr noundef %1)
  %36 = load ptr, ptr @gvsp_handle, align 8
  tail call void @conversation_set_dissector(ptr noundef %35, ptr noundef %36)
  %37 = tail call i32 @dissect_gvsp(ptr noundef %0, ptr noundef %1, ptr noundef %2, ptr poison)
  br label %38

38:                                               ; preds = %18, %21, %12, %4, %7, %29, %34
  %.0 = phi i1 [ true, %34 ], [ false, %29 ], [ false, %7 ], [ false, %4 ], [ false, %12 ], [ false, %21 ], [ false, %18 ]
  ret i1 %.0
}